target datalayout = "e-m:e-p270:32:32-p271:32:32-p272:64:64-i64:64-i128:128-f80:128-n8:16:32:64-S128"
target triple = "x86_64-pc-linux-gnu"

%struct.ma_vec3f = type { float, float, float }
%struct.ma_atomic_vec3f = type { %struct.ma_vec3f, i32 }
%struct.ma_spatializer_listener_config = type { i32, ptr, i32, float, float, float, float, %struct.ma_vec3f }
%struct.ma_spatializer_listener = type { %struct.ma_spatializer_listener_config, %struct.ma_atomic_vec3f, %struct.ma_atomic_vec3f, %struct.ma_atomic_vec3f, i32, i32, ptr }

; Function Attrs: nounwind uwtable
define hidden ptr @ma_spatializer_listener_get_channel_map(ptr noundef %0) #0 {
  %2 = alloca ptr, align 8
  %3 = alloca ptr, align 8
  store ptr %0, ptr %3, align 8
  %4 = load ptr, ptr %3, align 8
  %5 = icmp eq ptr %4, null
  br i1 %5, label %6, label %7

6:                                                ; preds = %1
  store ptr null, ptr %2, align 8
  br label %12

7:                                                ; preds = %1
  %8 = load ptr, ptr %3, align 8
  %9 = getelementptr inbounds nuw %struct.ma_spatializer_listener, ptr %8, i32 0, i32 0
  %10 = getelementptr inbounds nuw %struct.ma_spatializer_listener_config, ptr %9, i32 0, i32 1
  %11 = load ptr, ptr %10, align 8
  store ptr %11, ptr %2, align 8
  br label %12

12:                                               ; preds = %7, %6
  %13 = load ptr, ptr %2, align 8
  ret ptr %13
}